target datalayout = "e-m:e-p270:32:32-p271:32:32-p272:64:64-i64:64-i128:128-f80:128-n8:16:32:64-S128"
target triple = "x86_64-pc-linux-gnu"

%struct.ossl_param_st = type { ptr, i32, ptr, i64, i64 }

@.str.17 = private unnamed_addr constant [34 x i8] c"../openssl/test/params_api_test.c\00", align 1
@.str.21 = private unnamed_addr constant [4 x i8] c"cmp\00", align 1
@.str.25 = private unnamed_addr constant [34 x i8] c"OSSL_PARAM_get_int32(param, &i32)\00", align 1
@.str.26 = private unnamed_addr constant [34 x i8] c"OSSL_PARAM_get_int64(param, &i64)\00", align 1
@.str.27 = private unnamed_addr constant [47 x i8] c"OSSL_PARAM_get_uint32(param, (uint32_t *)&i32)\00", align 1
@.str.28 = private unnamed_addr constant [47 x i8] c"OSSL_PARAM_get_uint64(param, (uint64_t *)&i64)\00", align 1
@.str.29 = private unnamed_addr constant [33 x i8] c"OSSL_PARAM_get_size_t(param, &s)\00", align 1
@.str.30 = private unnamed_addr constant [27 x i8] c"OSSL_PARAM_modified(param)\00", align 1
@.str.31 = private unnamed_addr constant [4 x i8] c"buf\00", align 1
@.str.32 = private unnamed_addr constant [35 x i8] c"OSSL_PARAM_set_int32(param, 12345)\00", align 1
@.str.33 = private unnamed_addr constant [12 x i8] c"(size_t)i64\00", align 1
@.str.34 = private unnamed_addr constant [6 x i8] c"12345\00", align 1
@.str.35 = private unnamed_addr constant [36 x i8] c"OSSL_PARAM_set_uint32(param, 12345)\00", align 1

; Function Attrs: nounwind uwtable
define internal void @le_copy(ptr noundef %0, i64 noundef %1, ptr noundef %2, i64 noundef %3) #0 {
  %5 = alloca ptr, align 8
  %6 = alloca i64, align 8
  %7 = alloca ptr, align 8
  %8 = alloca i64, align 8
  %9 = alloca i32, align 4
  store ptr %0, ptr %5, align 8, !tbaa !29
  store i64 %1, ptr %6, align 8, !tbaa !11
  store ptr %2, ptr %7, align 8, !tbaa !27
  store i64 %3, ptr %8, align 8, !tbaa !11
  call void @llvm.lifetime.start.p0(i64 4, ptr %9) #5
  store i32 1, ptr %9, align 4, !tbaa !4
  %10 = load ptr, ptr %5, align 8, !tbaa !29
  %11 = load ptr, ptr %7, align 8, !tbaa !27
  %12 = load i64, ptr %6, align 8, !tbaa !11
  call void @llvm.memcpy.p0.p0.i64(ptr align 1 %10, ptr align 1 %11, i64 %12, i1 false)
  call void @llvm.lifetime.end.p0(i64 4, ptr %9) #5
  ret void
}

; Function Attrs: nounwind uwtable
define internal i32 @test_param_type_extra(ptr noundef %0, ptr noundef %1, i64 noundef %2) #0 {
  %4 = alloca i32, align 4
  %5 = alloca ptr, align 8
  %6 = alloca ptr, align 8
  %7 = alloca i64, align 8
  %8 = alloca i32, align 4
  %9 = alloca i64, align 8
  %10 = alloca i64, align 8
  %11 = alloca i64, align 8
  %12 = alloca [20 x i8], align 16
  %13 = alloca i32, align 4
  %14 = alloca i32, align 4
  %15 = alloca i32, align 4
  %16 = alloca i32, align 4
  store ptr %0, ptr %5, align 8, !tbaa !25
  store ptr %1, ptr %6, align 8, !tbaa !29
  store i64 %2, ptr %7, align 8, !tbaa !11
  call void @llvm.lifetime.start.p0(i64 4, ptr %8) #5
  call void @llvm.lifetime.start.p0(i64 8, ptr %9) #5
  call void @llvm.lifetime.start.p0(i64 8, ptr %10) #5
  call void @llvm.lifetime.start.p0(i64 8, ptr %11) #5
  call void @llvm.lifetime.start.p0(i64 20, ptr %12) #5
  call void @llvm.lifetime.start.p0(i64 4, ptr %13) #5
  %17 = load ptr, ptr %5, align 8, !tbaa !25
  %18 = getelementptr inbounds nuw %struct.ossl_param_st, ptr %17, i32 0, i32 3
  %19 = load i64, ptr %18, align 8, !tbaa !18
  %20 = icmp ule i64 %19, 4
  %21 = zext i1 %20 to i32
  store i32 %21, ptr %13, align 4, !tbaa !4
  call void @llvm.lifetime.start.p0(i64 4, ptr %14) #5
  %22 = load ptr, ptr %5, align 8, !tbaa !25
  %23 = getelementptr inbounds nuw %struct.ossl_param_st, ptr %22, i32 0, i32 3
  %24 = load i64, ptr %23, align 8, !tbaa !18
  %25 = icmp ule i64 %24, 8
  %26 = zext i1 %25 to i32
  store i32 %26, ptr %14, align 4, !tbaa !4
  call void @llvm.lifetime.start.p0(i64 4, ptr %15) #5
  %27 = load ptr, ptr %5, align 8, !tbaa !25
  %28 = getelementptr inbounds nuw %struct.ossl_param_st, ptr %27, i32 0, i32 1
  %29 = load i32, ptr %28, align 8, !tbaa !33
  %30 = icmp eq i32 %29, 1
  %31 = zext i1 %30 to i32
  store i32 %31, ptr %15, align 4, !tbaa !4
  %32 = load ptr, ptr %5, align 8, !tbaa !25
  %33 = getelementptr inbounds nuw %struct.ossl_param_st, ptr %32, i32 0, i32 4
  store i64 -1, ptr %33, align 8, !tbaa !19
  %34 = load i32, ptr %15, align 4, !tbaa !4
  %35 = icmp ne i32 %34, 0
  br i1 %35, label %36, label %55

36:                                               ; preds = %3
  %37 = load i32, ptr %13, align 4, !tbaa !4
  %38 = icmp ne i32 %37, 0
  br i1 %38, label %39, label %46

39:                                               ; preds = %36
  %40 = load ptr, ptr %5, align 8, !tbaa !25
  %41 = call i32 @OSSL_PARAM_get_int32(ptr noundef %40, ptr noundef %8)
  %42 = icmp ne i32 %41, 0
  %43 = zext i1 %42 to i32
  %44 = call i32 @test_true(ptr noundef @.str.17, i32 noundef 133, ptr noundef @.str.25, i32 noundef %43)
  %45 = icmp ne i32 %44, 0
  br i1 %45, label %46, label %53

46:                                               ; preds = %39, %36
  %47 = load ptr, ptr %5, align 8, !tbaa !25
  %48 = call i32 @OSSL_PARAM_get_int64(ptr noundef %47, ptr noundef %9)
  %49 = icmp ne i32 %48, 0
  %50 = zext i1 %49 to i32
  %51 = call i32 @test_true(ptr noundef @.str.17, i32 noundef 134, ptr noundef @.str.26, i32 noundef %50)
  %52 = icmp ne i32 %51, 0
  br i1 %52, label %54, label %53

53:                                               ; preds = %46, %39
  store i32 0, ptr %4, align 4
  store i32 1, ptr %16, align 4
  br label %207

54:                                               ; preds = %46
  br label %84

55:                                               ; preds = %3
  %56 = load i32, ptr %13, align 4, !tbaa !4
  %57 = icmp ne i32 %56, 0
  br i1 %57, label %58, label %65

58:                                               ; preds = %55
  %59 = load ptr, ptr %5, align 8, !tbaa !25
  %60 = call i32 @OSSL_PARAM_get_uint32(ptr noundef %59, ptr noundef %8)
  %61 = icmp ne i32 %60, 0
  %62 = zext i1 %61 to i32
  %63 = call i32 @test_true(ptr noundef @.str.17, i32 noundef 138, ptr noundef @.str.27, i32 noundef %62)
  %64 = icmp ne i32 %63, 0
  br i1 %64, label %65, label %82

65:                                               ; preds = %58, %55
  %66 = load ptr, ptr %5, align 8, !tbaa !25
  %67 = call i32 @OSSL_PARAM_get_uint64(ptr noundef %66, ptr noundef %9)
  %68 = icmp ne i32 %67, 0
  %69 = zext i1 %68 to i32
  %70 = call i32 @test_true(ptr noundef @.str.17, i32 noundef 139, ptr noundef @.str.28, i32 noundef %69)
  %71 = icmp ne i32 %70, 0
  br i1 %71, label %72, label %82

72:                                               ; preds = %65
  %73 = load i32, ptr %14, align 4, !tbaa !4
  %74 = icmp ne i32 %73, 0
  br i1 %74, label %75, label %83

75:                                               ; preds = %72
  %76 = load ptr, ptr %5, align 8, !tbaa !25
  %77 = call i32 @OSSL_PARAM_get_size_t(ptr noundef %76, ptr noundef %10)
  %78 = icmp ne i32 %77, 0
  %79 = zext i1 %78 to i32
  %80 = call i32 @test_true(ptr noundef @.str.17, i32 noundef 140, ptr noundef @.str.29, i32 noundef %79)
  %81 = icmp ne i32 %80, 0
  br i1 %81, label %83, label %82

82:                                               ; preds = %75, %65, %58
  store i32 0, ptr %4, align 4
  store i32 1, ptr %16, align 4
  br label %207

83:                                               ; preds = %75, %72
  br label %84

84:                                               ; preds = %83, %54
  %85 = load ptr, ptr %5, align 8, !tbaa !25
  %86 = call i32 @OSSL_PARAM_modified(ptr noundef %85)
  %87 = icmp ne i32 %86, 0
  %88 = zext i1 %87 to i32
  %89 = call i32 @test_false(ptr noundef @.str.17, i32 noundef 143, ptr noundef @.str.30, i32 noundef %88)
  %90 = icmp ne i32 %89, 0
  br i1 %90, label %92, label %91

91:                                               ; preds = %84
  store i32 0, ptr %4, align 4
  store i32 1, ptr %16, align 4
  br label %207

92:                                               ; preds = %84
  %93 = load i32, ptr %13, align 4, !tbaa !4
  %94 = icmp ne i32 %93, 0
  br i1 %94, label %95, label %112

95:                                               ; preds = %92
  %96 = getelementptr inbounds [20 x i8], ptr %12, i64 0, i64 0
  call void @le_copy(ptr noundef %96, i64 noundef 4, ptr noundef %8, i64 noundef 4)
  %97 = load i64, ptr %7, align 8, !tbaa !11
  %98 = icmp ult i64 4, %97
  br i1 %98, label %99, label %100

99:                                               ; preds = %95
  br label %102

100:                                              ; preds = %95
  %101 = load i64, ptr %7, align 8, !tbaa !11
  br label %102

102:                                              ; preds = %100, %99
  %103 = phi i64 [ 4, %99 ], [ %101, %100 ]
  store i64 %103, ptr %11, align 8, !tbaa !11
  %104 = getelementptr inbounds [20 x i8], ptr %12, i64 0, i64 0
  %105 = load i64, ptr %11, align 8, !tbaa !11
  %106 = load ptr, ptr %6, align 8, !tbaa !29
  %107 = load i64, ptr %11, align 8, !tbaa !11
  %108 = call i32 @test_mem_eq(ptr noundef @.str.17, i32 noundef 150, ptr noundef @.str.31, ptr noundef @.str.21, ptr noundef %104, i64 noundef %105, ptr noundef %106, i64 noundef %107)
  %109 = icmp ne i32 %108, 0
  br i1 %109, label %111, label %110

110:                                              ; preds = %102
  store i32 0, ptr %4, align 4
  store i32 1, ptr %16, align 4
  br label %207

111:                                              ; preds = %102
  br label %112

112:                                              ; preds = %111, %92
  %113 = getelementptr inbounds [20 x i8], ptr %12, i64 0, i64 0
  call void @le_copy(ptr noundef %113, i64 noundef 8, ptr noundef %9, i64 noundef 8)
  %114 = load i64, ptr %7, align 8, !tbaa !11
  %115 = icmp ult i64 8, %114
  br i1 %115, label %116, label %117

116:                                              ; preds = %112
  br label %119

117:                                              ; preds = %112
  %118 = load i64, ptr %7, align 8, !tbaa !11
  br label %119

119:                                              ; preds = %117, %116
  %120 = phi i64 [ 8, %116 ], [ %118, %117 ]
  store i64 %120, ptr %11, align 8, !tbaa !11
  %121 = getelementptr inbounds [20 x i8], ptr %12, i64 0, i64 0
  %122 = load i64, ptr %11, align 8, !tbaa !11
  %123 = load ptr, ptr %6, align 8, !tbaa !29
  %124 = load i64, ptr %11, align 8, !tbaa !11
  %125 = call i32 @test_mem_eq(ptr noundef @.str.17, i32 noundef 155, ptr noundef @.str.31, ptr noundef @.str.21, ptr noundef %121, i64 noundef %122, ptr noundef %123, i64 noundef %124)
  %126 = icmp ne i32 %125, 0
  br i1 %126, label %128, label %127

127:                                              ; preds = %119
  store i32 0, ptr %4, align 4
  store i32 1, ptr %16, align 4
  br label %207

128:                                              ; preds = %119
  %129 = load i32, ptr %14, align 4, !tbaa !4
  %130 = icmp ne i32 %129, 0
  br i1 %130, label %131, label %151

131:                                              ; preds = %128
  %132 = load i32, ptr %15, align 4, !tbaa !4
  %133 = icmp ne i32 %132, 0
  br i1 %133, label %151, label %134

134:                                              ; preds = %131
  %135 = getelementptr inbounds [20 x i8], ptr %12, i64 0, i64 0
  call void @le_copy(ptr noundef %135, i64 noundef 8, ptr noundef %10, i64 noundef 8)
  %136 = load i64, ptr %7, align 8, !tbaa !11
  %137 = icmp ult i64 8, %136
  br i1 %137, label %138, label %139

138:                                              ; preds = %134
  br label %141

139:                                              ; preds = %134
  %140 = load i64, ptr %7, align 8, !tbaa !11
  br label %141

141:                                              ; preds = %139, %138
  %142 = phi i64 [ 8, %138 ], [ %140, %139 ]
  store i64 %142, ptr %11, align 8, !tbaa !11
  %143 = getelementptr inbounds [20 x i8], ptr %12, i64 0, i64 0
  %144 = load i64, ptr %11, align 8, !tbaa !11
  %145 = load ptr, ptr %6, align 8, !tbaa !29
  %146 = load i64, ptr %11, align 8, !tbaa !11
  %147 = call i32 @test_mem_eq(ptr noundef @.str.17, i32 noundef 160, ptr noundef @.str.31, ptr noundef @.str.21, ptr noundef %143, i64 noundef %144, ptr noundef %145, i64 noundef %146)
  %148 = icmp ne i32 %147, 0
  br i1 %148, label %150, label %149

149:                                              ; preds = %141
  store i32 0, ptr %4, align 4
  store i32 1, ptr %16, align 4
  br label %207

150:                                              ; preds = %141
  br label %151

151:                                              ; preds = %150, %131, %128
  %152 = load i64, ptr %7, align 8, !tbaa !11
  %153 = icmp ugt i64 8, %152
  br i1 %153, label %154, label %206

154:                                              ; preds = %151
  %155 = load i32, ptr %15, align 4, !tbaa !4
  %156 = icmp ne i32 %155, 0
  br i1 %156, label %157, label %177

157:                                              ; preds = %154
  %158 = load ptr, ptr %5, align 8, !tbaa !25
  %159 = call i32 @OSSL_PARAM_set_int32(ptr noundef %158, i32 noundef 12345)
  %160 = icmp ne i32 %159, 0
  %161 = zext i1 %160 to i32
  %162 = call i32 @test_true(ptr noundef @.str.17, i32 noundef 167, ptr noundef @.str.32, i32 noundef %161)
  %163 = icmp ne i32 %162, 0
  br i1 %163, label %164, label %175

164:                                              ; preds = %157
  %165 = load ptr, ptr %5, align 8, !tbaa !25
  %166 = call i32 @OSSL_PARAM_get_int64(ptr noundef %165, ptr noundef %9)
  %167 = icmp ne i32 %166, 0
  %168 = zext i1 %167 to i32
  %169 = call i32 @test_true(ptr noundef @.str.17, i32 noundef 168, ptr noundef @.str.26, i32 noundef %168)
  %170 = icmp ne i32 %169, 0
  br i1 %170, label %171, label %175

171:                                              ; preds = %164
  %172 = load i64, ptr %9, align 8, !tbaa !11
  %173 = call i32 @test_size_t_eq(ptr noundef @.str.17, i32 noundef 169, ptr noundef @.str.33, ptr noundef @.str.34, i64 noundef %172, i64 noundef 12345)
  %174 = icmp ne i32 %173, 0
  br i1 %174, label %176, label %175

175:                                              ; preds = %171, %164, %157
  store i32 0, ptr %4, align 4
  store i32 1, ptr %16, align 4
  br label %207

176:                                              ; preds = %171
  br label %197

177:                                              ; preds = %154
  %178 = load ptr, ptr %5, align 8, !tbaa !25
  %179 = call i32 @OSSL_PARAM_set_uint32(ptr noundef %178, i32 noundef 12345)
  %180 = icmp ne i32 %179, 0
  %181 = zext i1 %180 to i32
  %182 = call i32 @test_true(ptr noundef @.str.17, i32 noundef 172, ptr noundef @.str.35, i32 noundef %181)
  %183 = icmp ne i32 %182, 0
  br i1 %183, label %184, label %195

184:                                              ; preds = %177
  %185 = load ptr, ptr %5, align 8, !tbaa !25
  %186 = call i32 @OSSL_PARAM_get_uint64(ptr noundef %185, ptr noundef %9)
  %187 = icmp ne i32 %186, 0
  %188 = zext i1 %187 to i32
  %189 = call i32 @test_true(ptr noundef @.str.17, i32 noundef 173, ptr noundef @.str.28, i32 noundef %188)
  %190 = icmp ne i32 %189, 0
  br i1 %190, label %191, label %195

191:                                              ; preds = %184
  %192 = load i64, ptr %9, align 8, !tbaa !11
  %193 = call i32 @test_size_t_eq(ptr noundef @.str.17, i32 noundef 174, ptr noundef @.str.33, ptr noundef @.str.34, i64 noundef %192, i64 noundef 12345)
  %194 = icmp ne i32 %193, 0
  br i1 %194, label %196, label %195

195:                                              ; preds = %191, %184, %177
  store i32 0, ptr %4, align 4
  store i32 1, ptr %16, align 4
  br label %207

196:                                              ; preds = %191
  br label %197

197:                                              ; preds = %196, %176
  %198 = load ptr, ptr %5, align 8, !tbaa !25
  %199 = call i32 @OSSL_PARAM_modified(ptr noundef %198)
  %200 = icmp ne i32 %199, 0
  %201 = zext i1 %200 to i32
  %202 = call i32 @test_true(ptr noundef @.str.17, i32 noundef 177, ptr noundef @.str.30, i32 noundef %201)
  %203 = icmp ne i32 %202, 0
  br i1 %203, label %205, label %204

204:                                              ; preds = %197
  store i32 0, ptr %4, align 4
  store i32 1, ptr %16, align 4
  br label %207

205:                                              ; preds = %197
  br label %206

206:                                              ; preds = %205, %151
  store i32 1, ptr %4, align 4
  store i32 1, ptr %16, align 4
  br label %207

207:                                              ; preds = %206, %204, %195, %175, %149, %127, %110, %91, %82, %53
  call void @llvm.lifetime.end.p0(i64 4, ptr %15) #5
  call void @llvm.lifetime.end.p0(i64 4, ptr %14) #5
  call void @llvm.lifetime.end.p0(i64 4, ptr %13) #5
  call void @llvm.lifetime.end.p0(i64 20, ptr %12) #5
  call void @llvm.lifetime.end.p0(i64 8, ptr %11) #5
  call void @llvm.lifetime.end.p0(i64 8, ptr %10) #5
  call void @llvm.lifetime.end.p0(i64 8, ptr %9) #5
  call void @llvm.lifetime.end.p0(i64 4, ptr %8) #5
  %208 = load i32, ptr %4, align 4
  ret i32 %208
}