; Function Attrs: nounwind uwtable
define internal fastcc range(i32 0, 2) i32 @test_param_type_extra(ptr noundef nonnull initializes((32, 40)) %0, ptr noundef %1, i64 noundef range(i64 4, 9) %2) unnamed_addr #0 {
  %4 = alloca i32, align 4
  %5 = alloca i64, align 8
  %6 = alloca i64, align 8
  %7 = alloca [20 x i8], align 16
  call void @llvm.lifetime.start.p0(i64 4, ptr nonnull %4) #5
  call void @llvm.lifetime.start.p0(i64 8, ptr nonnull %5) #5
  call void @llvm.lifetime.start.p0(i64 8, ptr nonnull %6) #5
  call void @llvm.lifetime.start.p0(i64 20, ptr nonnull %7) #5
  %8 = getelementptr inbounds nuw i8, ptr %0, i64 24
  %9 = load i64, ptr %8, align 8, !tbaa !18
  %10 = icmp ult i64 %9, 5
  %11 = icmp ugt i64 %9, 8
  %12 = getelementptr inbounds nuw i8, ptr %0, i64 8
  %13 = load i32, ptr %12, align 8, !tbaa !31
  %14 = icmp eq i32 %13, 1
  %15 = getelementptr inbounds nuw i8, ptr %0, i64 32
  store i64 -1, ptr %15, align 8, !tbaa !19
  br i1 %14, label %16, label %27

16:                                               ; preds = %3
  br i1 %10, label %17, label %22

17:                                               ; preds = %16
  %18 = call i32 @OSSL_PARAM_get_int32(ptr noundef nonnull %0, ptr noundef nonnull %4) #5
  %19 = icmp ne i32 %18, 0
  %20 = zext i1 %19 to i32
  %21 = call i32 @test_true(ptr noundef nonnull @.str.17, i32 noundef 133, ptr noundef nonnull @.str.25, i32 noundef %20) #5
  %.not42 = icmp eq i32 %21, 0
  br i1 %.not42, label %95, label %22

22:                                               ; preds = %17, %16
  %23 = call i32 @OSSL_PARAM_get_int64(ptr noundef nonnull %0, ptr noundef nonnull %5) #5
  %24 = icmp ne i32 %23, 0
  %25 = zext i1 %24 to i32
  %26 = call i32 @test_true(ptr noundef nonnull @.str.17, i32 noundef 134, ptr noundef nonnull @.str.26, i32 noundef %25) #5
  %.not43 = icmp eq i32 %26, 0
  br i1 %.not43, label %95, label %44

27:                                               ; preds = %3
  br i1 %10, label %28, label %33

28:                                               ; preds = %27
  %29 = call i32 @OSSL_PARAM_get_uint32(ptr noundef nonnull %0, ptr noundef nonnull %4) #5
  %30 = icmp ne i32 %29, 0
  %31 = zext i1 %30 to i32
  %32 = call i32 @test_true(ptr noundef nonnull @.str.17, i32 noundef 138, ptr noundef nonnull @.str.27, i32 noundef %31) #5
  %.not = icmp eq i32 %32, 0
  br i1 %.not, label %95, label %33

33:                                               ; preds = %28, %27
  %34 = call i32 @OSSL_PARAM_get_uint64(ptr noundef nonnull %0, ptr noundef nonnull %5) #5
  %35 = icmp ne i32 %34, 0
  %36 = zext i1 %35 to i32
  %37 = call i32 @test_true(ptr noundef nonnull @.str.17, i32 noundef 139, ptr noundef nonnull @.str.28, i32 noundef %36) #5
  %.not40 = icmp eq i32 %37, 0
  br i1 %.not40, label %95, label %38

38:                                               ; preds = %33
  br i1 %11, label %44, label %39

39:                                               ; preds = %38
  %40 = call i32 @OSSL_PARAM_get_size_t(ptr noundef nonnull %0, ptr noundef nonnull %6) #5
  %41 = icmp ne i32 %40, 0
  %42 = zext i1 %41 to i32
  %43 = call i32 @test_true(ptr noundef nonnull @.str.17, i32 noundef 140, ptr noundef nonnull @.str.29, i32 noundef %42) #5
  %.not41 = icmp eq i32 %43, 0
  br i1 %.not41, label %95, label %44

44:                                               ; preds = %38, %39, %22
  %45 = call i32 @OSSL_PARAM_modified(ptr noundef nonnull %0) #5
  %46 = icmp ne i32 %45, 0
  %47 = zext i1 %46 to i32
  %48 = call i32 @test_false(ptr noundef nonnull @.str.17, i32 noundef 143, ptr noundef nonnull @.str.30, i32 noundef %47) #5
  %.not44 = icmp eq i32 %48, 0
  br i1 %.not44, label %95, label %49

49:                                               ; preds = %44
  br i1 %10, label %50, label %53

50:                                               ; preds = %49
  %51 = load i32, ptr %4, align 4
  store i32 %51, ptr %7, align 16
  %52 = call i32 @test_mem_eq(ptr noundef nonnull @.str.17, i32 noundef 150, ptr noundef nonnull @.str.31, ptr noundef nonnull @.str.21, ptr noundef nonnull %7, i64 noundef 4, ptr noundef %1, i64 noundef 4) #5
  %.not45 = icmp eq i32 %52, 0
  br i1 %.not45, label %95, label %53

53:                                               ; preds = %50, %49
  %54 = load i64, ptr %5, align 8
  store i64 %54, ptr %7, align 16
  %55 = call i32 @test_mem_eq(ptr noundef nonnull @.str.17, i32 noundef 155, ptr noundef nonnull @.str.31, ptr noundef nonnull @.str.21, ptr noundef nonnull %7, i64 noundef %2, ptr noundef %1, i64 noundef %2) #5
  %.not46 = icmp eq i32 %55, 0
  br i1 %.not46, label %95, label %56

56:                                               ; preds = %53
  %or.cond = or i1 %11, %14
  br i1 %or.cond, label %60, label %57

57:                                               ; preds = %56
  %58 = load i64, ptr %6, align 8
  store i64 %58, ptr %7, align 16
  %59 = call i32 @test_mem_eq(ptr noundef nonnull @.str.17, i32 noundef 160, ptr noundef nonnull @.str.31, ptr noundef nonnull @.str.21, ptr noundef nonnull %7, i64 noundef %2, ptr noundef %1, i64 noundef %2) #5
  %.not47 = icmp eq i32 %59, 0
  br i1 %.not47, label %95, label %60

60:                                               ; preds = %57, %56
  %61 = icmp samesign ult i64 %2, 8
  br i1 %61, label %62, label %94

62:                                               ; preds = %60
  br i1 %14, label %63, label %76

63:                                               ; preds = %62
  %64 = call i32 @OSSL_PARAM_set_int32(ptr noundef nonnull %0, i32 noundef 12345) #5
  %65 = icmp ne i32 %64, 0
  %66 = zext i1 %65 to i32
  %67 = call i32 @test_true(ptr noundef nonnull @.str.17, i32 noundef 167, ptr noundef nonnull @.str.32, i32 noundef %66) #5
  %.not51 = icmp eq i32 %67, 0
  br i1 %.not51, label %95, label %68

68:                                               ; preds = %63
  %69 = call i32 @OSSL_PARAM_get_int64(ptr noundef nonnull %0, ptr noundef nonnull %5) #5
  %70 = icmp ne i32 %69, 0
  %71 = zext i1 %70 to i32
  %72 = call i32 @test_true(ptr noundef nonnull @.str.17, i32 noundef 168, ptr noundef nonnull @.str.26, i32 noundef %71) #5
  %.not52 = icmp eq i32 %72, 0
  br i1 %.not52, label %95, label %73

73:                                               ; preds = %68
  %74 = load i64, ptr %5, align 8, !tbaa !15
  %75 = call i32 @test_size_t_eq(ptr noundef nonnull @.str.17, i32 noundef 169, ptr noundef nonnull @.str.33, ptr noundef nonnull @.str.34, i64 noundef %74, i64 noundef 12345) #5
  %.not53 = icmp eq i32 %75, 0
  br i1 %.not53, label %95, label %89

76:                                               ; preds = %62
  %77 = call i32 @OSSL_PARAM_set_uint32(ptr noundef nonnull %0, i32 noundef 12345) #5
  %78 = icmp ne i32 %77, 0
  %79 = zext i1 %78 to i32
  %80 = call i32 @test_true(ptr noundef nonnull @.str.17, i32 noundef 172, ptr noundef nonnull @.str.35, i32 noundef %79) #5
  %.not48 = icmp eq i32 %80, 0
  br i1 %.not48, label %95, label %81

81:                                               ; preds = %76
  %82 = call i32 @OSSL_PARAM_get_uint64(ptr noundef nonnull %0, ptr noundef nonnull %5) #5
  %83 = icmp ne i32 %82, 0
  %84 = zext i1 %83 to i32
  %85 = call i32 @test_true(ptr noundef nonnull @.str.17, i32 noundef 173, ptr noundef nonnull @.str.28, i32 noundef %84) #5
  %.not49 = icmp eq i32 %85, 0
  br i1 %.not49, label %95, label %86

86:                                               ; preds = %81
  %87 = load i64, ptr %5, align 8, !tbaa !15
  %88 = call i32 @test_size_t_eq(ptr noundef nonnull @.str.17, i32 noundef 174, ptr noundef nonnull @.str.33, ptr noundef nonnull @.str.34, i64 noundef %87, i64 noundef 12345) #5
  %.not50 = icmp eq i32 %88, 0
  br i1 %.not50, label %95, label %89

89:                                               ; preds = %86, %73
  %90 = call i32 @OSSL_PARAM_modified(ptr noundef nonnull %0) #5
  %91 = icmp ne i32 %90, 0
  %92 = zext i1 %91 to i32
  %93 = call i32 @test_true(ptr noundef nonnull @.str.17, i32 noundef 177, ptr noundef nonnull @.str.30, i32 noundef %92) #5
  %.not54 = icmp eq i32 %93, 0
  br i1 %.not54, label %95, label %94

94:                                               ; preds = %89, %60
  br label %95

95:                                               ; preds = %89, %76, %81, %86, %63, %68, %73, %57, %53, %50, %44, %28, %33, %39, %17, %22, %94
  %.0 = phi i32 [ 1, %94 ], [ 0, %22 ], [ 0, %17 ], [ 0, %39 ], [ 0, %33 ], [ 0, %28 ], [ 0, %44 ], [ 0, %50 ], [ 0, %53 ], [ 0, %57 ], [ 0, %73 ], [ 0, %68 ], [ 0, %63 ], [ 0, %86 ], [ 0, %81 ], [ 0, %76 ], [ 0, %89 ]
  call void @llvm.lifetime.end.p0(i64 20, ptr nonnull %7) #5
  call void @llvm.lifetime.end.p0(i64 8, ptr nonnull %6) #5
  call void @llvm.lifetime.end.p0(i64 8, ptr nonnull %5) #5
  call void @llvm.lifetime.end.p0(i64 4, ptr nonnull %4) #5
  ret i32 %.0
}